target datalayout = "e-m:e-p270:32:32-p271:32:32-p272:64:64-i64:64-i128:128-f80:128-n8:16:32:64-S128"
target triple = "x86_64-unknown-linux-gnu"

%"class.std::unordered_map" = type { %"class.std::_Hashtable" }
%"class.std::_Hashtable" = type { ptr, i64, %"struct.std::__detail::_Hash_node_base", i64, %"struct.std::__detail::_Prime_rehash_policy", ptr }
%"struct.std::__detail::_Hash_node_base" = type { ptr }
%"struct.std::__detail::_Prime_rehash_policy" = type { float, i64 }
%"class.rocksdb::Customizable" = type { %"class.rocksdb::Configurable" }
%"class.rocksdb::Configurable" = type { ptr, %"class.std::vector" }
%"class.std::vector" = type { %"struct.std::_Vector_base" }
%"struct.std::_Vector_base" = type { %"struct.std::_Vector_base<rocksdb::Configurable::RegisteredOptions, std::allocator<rocksdb::Configurable::RegisteredOptions>>::_Vector_impl" }
%"struct.std::_Vector_base<rocksdb::Configurable::RegisteredOptions, std::allocator<rocksdb::Configurable::RegisteredOptions>>::_Vector_impl" = type { %"struct.std::_Vector_base<rocksdb::Configurable::RegisteredOptions, std::allocator<rocksdb::Configurable::RegisteredOptions>>::_Vector_impl_data" }
%"struct.std::_Vector_base<rocksdb::Configurable::RegisteredOptions, std::allocator<rocksdb::Configurable::RegisteredOptions>>::_Vector_impl_data" = type { ptr, ptr, ptr }
%"struct.rocksdb::cassandra::CassandraOptions" = type <{ i64, i32, i8, [3 x i8] }>
%"class.rocksdb::cassandra::CassandraCompactionFilterFactory" = type { %"class.rocksdb::CompactionFilterFactory", %"struct.rocksdb::cassandra::CassandraOptions" }
%"class.rocksdb::CompactionFilterFactory" = type { %"class.rocksdb::Customizable" }

@_ZN7rocksdb9cassandraL26cassandra_filter_type_infoB5cxx11E = internal global %"class.std::unordered_map" zeroinitializer, align 8
@_ZTVN7rocksdb12CustomizableE = external unnamed_addr constant { [21 x ptr] }, align 8
@_ZTVN7rocksdb12ConfigurableE = external unnamed_addr constant { [16 x ptr] }, align 8

; Function Attrs: mustprogress nounwind uwtable
define linkonce_odr void @_ZNSt15__new_allocatorIN7rocksdb12Configurable17RegisteredOptionsEEC2Ev(ptr noundef nonnull align 1 dereferenceable(1) %this) unnamed_addr #3 comdat align 2 {
entry:
  %this.addr = alloca ptr, align 8
  store ptr %this, ptr %this.addr, align 8
  ret void
}

; Function Attrs: mustprogress nounwind uwtable
define linkonce_odr void @_ZNSt12_Vector_baseIN7rocksdb12Configurable17RegisteredOptionsESaIS2_EE17_Vector_impl_dataC2Ev(ptr noundef nonnull align 8 dereferenceable(24) %this) unnamed_addr #3 comdat align 2 {
entry:
  %this.addr = alloca ptr, align 8
  store ptr %this, ptr %this.addr, align 8
  %this1 = load ptr, ptr %this.addr, align 8
  %_M_start = getelementptr inbounds %"struct.std::_Vector_base<rocksdb::Configurable::RegisteredOptions, std::allocator<rocksdb::Configurable::RegisteredOptions>>::_Vector_impl_data", ptr %this1, i32 0, i32 0
  store ptr null, ptr %_M_start, align 8
  %_M_finish = getelementptr inbounds %"struct.std::_Vector_base<rocksdb::Configurable::RegisteredOptions, std::allocator<rocksdb::Configurable::RegisteredOptions>>::_Vector_impl_data", ptr %this1, i32 0, i32 1
  store ptr null, ptr %_M_finish, align 8
  %_M_end_of_storage = getelementptr inbounds %"struct.std::_Vector_base<rocksdb::Configurable::RegisteredOptions, std::allocator<rocksdb::Configurable::RegisteredOptions>>::_Vector_impl_data", ptr %this1, i32 0, i32 2
  store ptr null, ptr %_M_end_of_storage, align 8
  ret void
}

; Function Attrs: mustprogress nounwind uwtable
define linkonce_odr void @_ZNSaIN7rocksdb12Configurable17RegisteredOptionsEEC2Ev(ptr noundef nonnull align 1 dereferenceable(1) %this) unnamed_addr #3 comdat align 2 {
entry:
  %this.addr = alloca ptr, align 8
  store ptr %this, ptr %this.addr, align 8
  %this1 = load ptr, ptr %this.addr, align 8
  call void @_ZNSt15__new_allocatorIN7rocksdb12Configurable17RegisteredOptionsEEC2Ev(ptr noundef nonnull align 1 dereferenceable(1) %this1) #4
  ret void
}

; Function Attrs: mustprogress nounwind uwtable
define linkonce_odr void @_ZNSt12_Vector_baseIN7rocksdb12Configurable17RegisteredOptionsESaIS2_EE12_Vector_implC2Ev(ptr noundef nonnull align 8 dereferenceable(24) %this) unnamed_addr #3 comdat align 2 {
entry:
  %this.addr = alloca ptr, align 8
  store ptr %this, ptr %this.addr, align 8
  %this1 = load ptr, ptr %this.addr, align 8
  call void @_ZNSaIN7rocksdb12Configurable17RegisteredOptionsEEC2Ev(ptr noundef nonnull align 1 dereferenceable(1) %this1) #4
  call void @_ZNSt12_Vector_baseIN7rocksdb12Configurable17RegisteredOptionsESaIS2_EE17_Vector_impl_dataC2Ev(ptr noundef nonnull align 8 dereferenceable(24) %this1) #4
  ret void
}

; Function Attrs: mustprogress nounwind uwtable
define linkonce_odr void @_ZNSt12_Vector_baseIN7rocksdb12Configurable17RegisteredOptionsESaIS2_EEC2Ev(ptr noundef nonnull align 8 dereferenceable(24) %this) unnamed_addr #3 comdat align 2 {
entry:
  %this.addr = alloca ptr, align 8
  store ptr %this, ptr %this.addr, align 8
  %this1 = load ptr, ptr %this.addr, align 8
  %_M_impl = getelementptr inbounds %"struct.std::_Vector_base", ptr %this1, i32 0, i32 0
  call void @_ZNSt12_Vector_baseIN7rocksdb12Configurable17RegisteredOptionsESaIS2_EE12_Vector_implC2Ev(ptr noundef nonnull align 8 dereferenceable(24) %_M_impl) #4
  ret void
}

; Function Attrs: mustprogress nounwind uwtable
define linkonce_odr void @_ZNSt6vectorIN7rocksdb12Configurable17RegisteredOptionsESaIS2_EEC2Ev(ptr noundef nonnull align 8 dereferenceable(24) %this) unnamed_addr #3 comdat align 2 {
entry:
  %this.addr = alloca ptr, align 8
  store ptr %this, ptr %this.addr, align 8
  %this1 = load ptr, ptr %this.addr, align 8
  call void @_ZNSt12_Vector_baseIN7rocksdb12Configurable17RegisteredOptionsESaIS2_EEC2Ev(ptr noundef nonnull align 8 dereferenceable(24) %this1) #4
  ret void
}

; Function Attrs: mustprogress nounwind uwtable
define linkonce_odr void @_ZN7rocksdb12ConfigurableC2Ev(ptr noundef nonnull align 8 dereferenceable(32) %this) unnamed_addr #3 comdat align 2 {
entry:
  %this.addr = alloca ptr, align 8
  store ptr %this, ptr %this.addr, align 8
  %this1 = load ptr, ptr %this.addr, align 8
  store ptr getelementptr inbounds ({ [16 x ptr] }, ptr @_ZTVN7rocksdb12ConfigurableE, i32 0, i32 0, i32 2), ptr %this1, align 8
  %options_ = getelementptr inbounds %"class.rocksdb::Configurable", ptr %this1, i32 0, i32 1
  call void @_ZNSt6vectorIN7rocksdb12Configurable17RegisteredOptionsESaIS2_EEC2Ev(ptr noundef nonnull align 8 dereferenceable(24) %options_) #4
  ret void
}

; Function Attrs: mustprogress nounwind uwtable
define linkonce_odr void @_ZN7rocksdb12CustomizableC2Ev(ptr noundef nonnull align 8 dereferenceable(32) %this) unnamed_addr #3 comdat align 2 {
entry:
  %this.addr = alloca ptr, align 8
  store ptr %this, ptr %this.addr, align 8
  %this1 = load ptr, ptr %this.addr, align 8
  call void @_ZN7rocksdb12ConfigurableC2Ev(ptr noundef nonnull align 8 dereferenceable(32) %this1) #4
  store ptr getelementptr inbounds ({ [21 x ptr] }, ptr @_ZTVN7rocksdb12CustomizableE, i32 0, i32 0, i32 2), ptr %this1, align 8
  ret void
}

; Function Attrs: mustprogress nounwind uwtable
define linkonce_odr void @_ZN7rocksdb9cassandra16CassandraOptionsC2Eimb(ptr noundef nonnull align 8 dereferenceable(13) %this, i32 noundef %_gc_grace_period_in_seconds, i64 noundef %_operands_limit, i1 noundef zeroext %_purge_ttl_on_expiration) unnamed_addr #3 comdat align 2 {
entry:
  %this.addr = alloca ptr, align 8
  %_gc_grace_period_in_seconds.addr = alloca i32, align 4
  %_operands_limit.addr = alloca i64, align 8
  %_purge_ttl_on_expiration.addr = alloca i8, align 1
  store ptr %this, ptr %this.addr, align 8
  store i32 %_gc_grace_period_in_seconds, ptr %_gc_grace_period_in_seconds.addr, align 4
  store i64 %_operands_limit, ptr %_operands_limit.addr, align 8
  %frombool = zext i1 %_purge_ttl_on_expiration to i8
  store i8 %frombool, ptr %_purge_ttl_on_expiration.addr, align 1
  %this1 = load ptr, ptr %this.addr, align 8
  %operands_limit = getelementptr inbounds %"struct.rocksdb::cassandra::CassandraOptions", ptr %this1, i32 0, i32 0
  %0 = load i64, ptr %_operands_limit.addr, align 8
  store i64 %0, ptr %operands_limit, align 8
  %gc_grace_period_in_seconds = getelementptr inbounds %"struct.rocksdb::cassandra::CassandraOptions", ptr %this1, i32 0, i32 1
  %1 = load i32, ptr %_gc_grace_period_in_seconds.addr, align 4
  store i32 %1, ptr %gc_grace_period_in_seconds, align 8
  %purge_ttl_on_expiration = getelementptr inbounds %"struct.rocksdb::cassandra::CassandraOptions", ptr %this1, i32 0, i32 2
  %2 = load i8, ptr %_purge_ttl_on_expiration.addr, align 1
  %tobool = trunc i8 %2 to i1
  %frombool2 = zext i1 %tobool to i8
  store i8 %frombool2, ptr %purge_ttl_on_expiration, align 4
  ret void
}

; Function Attrs: mustprogress nounwind uwtable
define linkonce_odr void @_ZN7rocksdb23CompactionFilterFactoryC2Ev(ptr noundef nonnull align 8 dereferenceable(32) %this) unnamed_addr #3 comdat align 2 {
entry:
  %this.addr = alloca ptr, align 8
  store ptr %this, ptr %this.addr, align 8
  %this1 = load ptr, ptr %this.addr, align 8
  call void @_ZN7rocksdb12CustomizableC2Ev(ptr noundef nonnull align 8 dereferenceable(32) %this1) #4
  store ptr getelementptr inbounds ({ [23 x ptr] }, ptr @_ZTVN7rocksdb23CompactionFilterFactoryE, i32 0, i32 0, i32 2), ptr %this1, align 8
  ret void
}

; Function Attrs: mustprogress uwtable
define void @_ZN7rocksdb9cassandra32CassandraCompactionFilterFactoryC2Ebi(ptr noundef nonnull align 8 dereferenceable(48) %this, i1 noundef zeroext %purge_ttl_on_expiration, i32 noundef %gc_grace_period_in_seconds) unnamed_addr #2 align 2 personality ptr @__gxx_personality_v0 {
entry:
  %this.addr = alloca ptr, align 8
  %purge_ttl_on_expiration.addr = alloca i8, align 1
  %gc_grace_period_in_seconds.addr = alloca i32, align 4
  %exn.slot = alloca ptr, align 8
  %ehselector.slot = alloca i32, align 4
  store ptr %this, ptr %this.addr, align 8
  %frombool = zext i1 %purge_ttl_on_expiration to i8
  store i8 %frombool, ptr %purge_ttl_on_expiration.addr, align 1
  store i32 %gc_grace_period_in_seconds, ptr %gc_grace_period_in_seconds.addr, align 4
  %this1 = load ptr, ptr %this.addr, align 8
  call void @_ZN7rocksdb23CompactionFilterFactoryC2Ev(ptr noundef nonnull align 8 dereferenceable(32) %this1) #4
  store ptr getelementptr inbounds ({ [23 x ptr] }, ptr @_ZTVN7rocksdb9cassandra32CassandraCompactionFilterFactoryE, i32 0, i32 0, i32 2), ptr %this1, align 8
  %options_ = getelementptr inbounds %"class.rocksdb::cassandra::CassandraCompactionFilterFactory", ptr %this1, i32 0, i32 1
  %0 = load i32, ptr %gc_grace_period_in_seconds.addr, align 4
  %1 = load i8, ptr %purge_ttl_on_expiration.addr, align 1
  %tobool = trunc i8 %1 to i1
  invoke void @_ZN7rocksdb9cassandra16CassandraOptionsC2Eimb(ptr noundef nonnull align 8 dereferenceable(13) %options_, i32 noundef %0, i64 noundef 0, i1 noundef zeroext %tobool)
          to label %invoke.cont unwind label %lpad

invoke.cont:                                      ; preds = %entry
  %options_2 = getelementptr inbounds %"class.rocksdb::cassandra::CassandraCompactionFilterFactory", ptr %this1, i32 0, i32 1
  invoke void @_ZN7rocksdb12Configurable15RegisterOptionsINS_9cassandra16CassandraOptionsEEEvPT_PKSt13unordered_mapINSt7__cxx1112basic_stringIcSt11char_traitsIcESaIcEEENS_14OptionTypeInfoESt4hashISC_ESt8equal_toISC_ESaISt4pairIKSC_SD_EEE(ptr noundef nonnull align 8 dereferenceable(32) %this1, ptr noundef %options_2, ptr noundef @_ZN7rocksdb9cassandraL26cassandra_filter_type_infoB5cxx11E)
          to label %invoke.cont3 unwind label %lpad

invoke.cont3:                                     ; preds = %invoke.cont
  ret void

lpad:                                             ; preds = %invoke.cont, %entry
  %2 = landingpad { ptr, i32 }
          cleanup
  %3 = extractvalue { ptr, i32 } %2, 0
  store ptr %3, ptr %exn.slot, align 8
  %4 = extractvalue { ptr, i32 } %2, 1
  store i32 %4, ptr %ehselector.slot, align 4
  call void @_ZN7rocksdb23CompactionFilterFactoryD2Ev(ptr noundef nonnull align 8 dereferenceable(32) %this1) #4
  br label %eh.resume

eh.resume:                                        ; preds = %lpad
  %exn = load ptr, ptr %exn.slot, align 8
  %sel = load i32, ptr %ehselector.slot, align 4
  %lpad.val = insertvalue { ptr, i32 } poison, ptr %exn, 0
  %lpad.val4 = insertvalue { ptr, i32 } %lpad.val, i32 %sel, 1
  resume { ptr, i32 } %lpad.val4
}