; Function Attrs: mustprogress uwtable
define void @_ZN7rocksdb9cassandra32CassandraCompactionFilterFactoryC2Ebi(ptr noundef nonnull align 8 dereferenceable(48) %this, i1 noundef zeroext %purge_ttl_on_expiration, i32 noundef %gc_grace_period_in_seconds) unnamed_addr #3 align 2 personality ptr @__gxx_personality_v0 {
entry:
  %options_.i.i.i = getelementptr inbounds i8, ptr %this, i64 8
  tail call void @llvm.memset.p0.i64(ptr noundef nonnull align 8 dereferenceable(24) %options_.i.i.i, i8 0, i64 24, i1 false)
  store ptr getelementptr inbounds ({ [23 x ptr] }, ptr @_ZTVN7rocksdb9cassandra32CassandraCompactionFilterFactoryE, i64 0, i32 0, i64 2), ptr %this, align 8
  %options_ = getelementptr inbounds i8, ptr %this, i64 32
  %frombool.i = zext i1 %purge_ttl_on_expiration to i8
  store i64 0, ptr %options_, align 8
  %gc_grace_period_in_seconds.i = getelementptr inbounds i8, ptr %this, i64 40
  store i32 %gc_grace_period_in_seconds, ptr %gc_grace_period_in_seconds.i, align 8
  %purge_ttl_on_expiration.i = getelementptr inbounds i8, ptr %this, i64 44
  store i8 %frombool.i, ptr %purge_ttl_on_expiration.i, align 4
  invoke void @_ZN7rocksdb12Configurable15RegisterOptionsINS_9cassandra16CassandraOptionsEEEvPT_PKSt13unordered_mapINSt7__cxx1112basic_stringIcSt11char_traitsIcESaIcEEENS_14OptionTypeInfoESt4hashISC_ESt8equal_toISC_ESaISt4pairIKSC_SD_EEE(ptr noundef nonnull align 8 dereferenceable(32) %this, ptr noundef nonnull %options_, ptr noundef nonnull @_ZN7rocksdb9cassandraL26cassandra_filter_type_infoB5cxx11E)
          to label %invoke.cont3 unwind label %lpad

invoke.cont3:                                     ; preds = %entry
  ret void

lpad:                                             ; preds = %entry
  %0 = landingpad { ptr, i32 }
          cleanup
  tail call void @_ZN7rocksdb23CompactionFilterFactoryD2Ev(ptr noundef nonnull align 8 dereferenceable(32) %this) #19
  resume { ptr, i32 } %0
}